; Function Attrs: nofree nosync nounwind memory(argmem: readwrite) uwtable
define internal fastcc void @sort_rec2(ptr noundef captures(none) %0, i32 noundef %1) unnamed_addr #1 {
  %3 = icmp slt i32 %1, 16
  br i1 %3, label %tailrecurse._crit_edge, label %.lr.ph

tailrecurse._crit_edge:                           ; preds = %tailrecurse, %2
  %.tr.lcssa = phi ptr [ %0, %2 ], [ %29, %tailrecurse ]
  %.tr38.lcssa = phi i32 [ %1, %2 ], [ %40, %tailrecurse ]
  %4 = icmp sgt i32 %.tr38.lcssa, 1
  br i1 %4, label %.lr.ph27.preheader.i, label %selectionsort2.exit

.lr.ph27.preheader.i:                             ; preds = %tailrecurse._crit_edge
  %5 = add nsw i32 %.tr38.lcssa, -1
  %wide.trip.count35.i = zext nneg i32 %5 to i64
  %wide.trip.count.i = zext nneg i32 %.tr38.lcssa to i64
  br label %.lr.ph.preheader.i

.lr.ph.preheader.i:                               ; preds = %._crit_edge.i, %.lr.ph27.preheader.i
  %indvars.iv32.i = phi i64 [ 0, %.lr.ph27.preheader.i ], [ %indvars.iv.next33.i, %._crit_edge.i ]
  %indvars.iv.i = phi i64 [ 1, %.lr.ph27.preheader.i ], [ %indvars.iv.next.i, %._crit_edge.i ]
  %6 = trunc nuw nsw i64 %indvars.iv32.i to i32
  br label %.lr.ph.i

.lr.ph.i:                                         ; preds = %.lr.ph.i, %.lr.ph.preheader.i
  %indvars.iv29.i = phi i64 [ %indvars.iv.i, %.lr.ph.preheader.i ], [ %indvars.iv.next30.i, %.lr.ph.i ]
  %.02124.i = phi i32 [ %6, %.lr.ph.preheader.i ], [ %spec.select.i, %.lr.ph.i ]
  %7 = getelementptr inbounds nuw i32, ptr %.tr.lcssa, i64 %indvars.iv29.i
  %8 = load i32, ptr %7, align 4, !tbaa !5
  %9 = sext i32 %.02124.i to i64
  %10 = getelementptr inbounds i32, ptr %.tr.lcssa, i64 %9
  %11 = load i32, ptr %10, align 4, !tbaa !5
  %12 = icmp slt i32 %8, %11
  %13 = trunc nuw nsw i64 %indvars.iv29.i to i32
  %spec.select.i = select i1 %12, i32 %13, i32 %.02124.i
  %indvars.iv.next30.i = add nuw nsw i64 %indvars.iv29.i, 1
  %exitcond.not.i = icmp eq i64 %indvars.iv.next30.i, %wide.trip.count.i
  br i1 %exitcond.not.i, label %._crit_edge.i, label %.lr.ph.i, !llvm.loop !12

._crit_edge.i:                                    ; preds = %.lr.ph.i
  %indvars.iv.next33.i = add nuw nsw i64 %indvars.iv32.i, 1
  %14 = getelementptr inbounds nuw i32, ptr %.tr.lcssa, i64 %indvars.iv32.i
  %15 = load i32, ptr %14, align 4, !tbaa !5
  %16 = sext i32 %spec.select.i to i64
  %17 = getelementptr inbounds i32, ptr %.tr.lcssa, i64 %16
  %18 = load i32, ptr %17, align 4, !tbaa !5
  store i32 %18, ptr %14, align 4, !tbaa !5
  store i32 %15, ptr %17, align 4, !tbaa !5
  %indvars.iv.next.i = add nuw nsw i64 %indvars.iv.i, 1
  %exitcond36.not.i = icmp eq i64 %indvars.iv.next33.i, %wide.trip.count35.i
  br i1 %exitcond36.not.i, label %selectionsort2.exit, label %.lr.ph.preheader.i, !llvm.loop !13

.lr.ph:                                           ; preds = %2, %tailrecurse
  %.tr3847 = phi i32 [ %40, %tailrecurse ], [ %1, %2 ]
  %.tr46 = phi ptr [ %29, %tailrecurse ], [ %0, %2 ]
  %19 = lshr i32 %.tr3847, 1
  %20 = zext nneg i32 %19 to i64
  %21 = getelementptr inbounds nuw i32, ptr %.tr46, i64 %20
  %22 = load i32, ptr %21, align 4, !tbaa !5
  br label %23

23:                                               ; preds = %36, %.lr.ph
  %.030 = phi i64 [ -1, %.lr.ph ], [ %indvars.iv.next, %36 ]
  %.0 = phi i32 [ %.tr3847, %.lr.ph ], [ %38, %36 ]
  %sext = shl i64 %.030, 32
  %24 = ashr exact i64 %sext, 32
  br label %25

25:                                               ; preds = %25, %23
  %indvars.iv = phi i64 [ %indvars.iv.next, %25 ], [ %24, %23 ]
  %indvars.iv.next = add nsw i64 %indvars.iv, 1
  %26 = getelementptr inbounds i32, ptr %.tr46, i64 %indvars.iv.next
  %27 = load i32, ptr %26, align 4, !tbaa !5
  %28 = icmp slt i32 %27, %22
  br i1 %28, label %25, label %.preheader, !llvm.loop !14

.preheader:                                       ; preds = %25
  %29 = getelementptr inbounds i32, ptr %.tr46, i64 %indvars.iv.next
  %30 = sext i32 %.0 to i64
  br label %31

31:                                               ; preds = %.preheader, %31
  %indvars.iv57 = phi i64 [ %30, %.preheader ], [ %indvars.iv.next58, %31 ]
  %indvars.iv.next58 = add nsw i64 %indvars.iv57, -1
  %32 = getelementptr inbounds i32, ptr %.tr46, i64 %indvars.iv.next58
  %33 = load i32, ptr %32, align 4, !tbaa !5
  %34 = icmp slt i32 %22, %33
  br i1 %34, label %31, label %35, !llvm.loop !15

35:                                               ; preds = %31
  %.not = icmp slt i64 %indvars.iv.next, %indvars.iv.next58
  br i1 %.not, label %36, label %tailrecurse

36:                                               ; preds = %35
  %37 = getelementptr inbounds i32, ptr %.tr46, i64 %indvars.iv.next58
  %38 = trunc nsw i64 %indvars.iv.next58 to i32
  store i32 %33, ptr %29, align 4, !tbaa !5
  store i32 %27, ptr %37, align 4, !tbaa !5
  br label %23

tailrecurse:                                      ; preds = %35
  %39 = trunc nsw i64 %indvars.iv.next to i32
  tail call fastcc void @sort_rec2(ptr noundef nonnull %.tr46, i32 noundef %39)
  %40 = sub nsw i32 %.tr3847, %39
  %41 = icmp slt i32 %40, 16
  br i1 %41, label %tailrecurse._crit_edge, label %.lr.ph

selectionsort2.exit:                              ; preds = %._crit_edge.i, %tailrecurse._crit_edge
  ret void
}